-----BEGIN CERTIFICATE-----
MIIFwTCCA6mgAwIBAgIUKyIxNZNIVwC4CwIWJdbBuqdwyO4wDQYJKoZIhvcNAQEL
BQAwaDELMAkGA1UEBhMCQ04xEDAOBgNVBAgMB0JlaWppbmcxDzANBgNVBAcMBnhp
YW1lbjEaMBgGA1UECgwRTXlDb21wYW55IFJvb3QgQ0ExGjAYBgNVBAMMEU15Q29t
cGFueSBSb290IENBMB4XDTI1MTIwMjIwMzYxOFoXDTQ1MTEyNzIwMzYxOFowaDEL
MAkGA1UEBhMCQ04xEDAOBgNVBAgMB0JlaWppbmcxDzANBgNVBAcMBnhpYW1lbjEa
MBgGA1UECgwRTXlDb21wYW55IFJvb3QgQ0ExGjAYBgNVBAMMEU15Q29tcGFueSBS
b290IENBMIICIjANBgkqhkiG9w0BAQEFAAOCAg8AMIICCgKCAgEA64BluiaUdM9V
XIQsMvWqAcuF9i/wY1i1CCNSgQ0t2w1y+gQ09vstGwjapNTYT29QoyaSS1SCxMtB
BYjOmgVD7lRIUB/3Stb2c0cBtvq6O1ueriU65h/eRLQaop8Nu4xoVYaeIr+sFINl
LKCo483EyzZ3RiDns5mLItjW4hiLdFanzey8rEt2ca/v+1LkY1c1n4XDFnjUcTH9
1RAni/3Q8e0cC9NWvMxBBd8W2LSa5wH0eNQntvO/9yILYIotYb5onJBlJoNgrfvr
g0ZM/FJYzFGeLlpVaHZU5qe7WRm+lmliDqP6KDepF0wBjbBNKNKEyKUixTReT0CD
eN/1yYmlrfU1I/Nop8CtD7TmmIb0Y7R484gG6eyAKajoNELIubODxCv8zqjQPLx4
UI072pAxfmkY+dvdKfrGfPlFdU9Rv21aO1Tzyyw56ji32Om2CdmDKfDyjhd8X/CJ
VMK6mQ8m/6n5N287yGI8EufTd6UxErx8iRzPY4wxTTI2cCxshWIiokTXYX1hkj9+
m12JdYaxQ15xaXWu4cVJC+7BU7OC4hzi68+Y98TyhfTfu+hkZPxEISXMcJneqCwD
ORaHEkMMZZFFSHbj3/YQNGrRHuYmdXTjrr4NhSU6y41Pylh6Ig1AqAE9j6Odp0iF
z2YRuGEUZyLTGFw7WW6z2EN7QwvoNE0CAwEAAaNjMGEwHQYDVR0OBBYEFKZxacu7
64ptK2ms7EpnrUYth/TFMB8GA1UdIwQYMBaAFKZxacu764ptK2ms7EpnrUYth/TF
MA8GA1UdEwEB/wQFMAMBAf8wDgYDVR0PAQH/BAQDAgGGMA0GCSqGSIb3DQEBCwUA
A4ICAQBAj1P/b2/BrNrgaXEM2sOyT02P4wCmJpJTMKFrCAhAplW6Z20+U1s58hOE
eM1ExELtzvT4abPdBHFmcW4mcUc6WR3eOfcB1uCX5Aywzt/zX9FN+tiOROeMD/jL
C486Le9+jCkSPFpspzyMNKBoPSza6pS9vECFDp6B+oUwNz8hmyR0Oishp24z99pb
8O0aaEUsvtMUo7PKRw9/qVul/6Ukq5M5BsrC6RYBb4P9qq75HwHys3OyNbvwMGgA
epba2OaxtHDKe2KvlbcRwPzRSFTkicMlxAMR5VPkgpz4REX3NUaOIZ7FEjb6IFDH
G6w90rSsVTQBfq70FBwKBuDP6gyjbroCPNuFDEhZ+q95QmSrggPhdJ3boyOrfZUl
AIUWTTJgOsc1XcafeZpb06/kIJsclGKKieyjuxISms3lmg6n2DEuBEAjmVyDmUo8
nd8WS6cU3XxvyI8lO8YGmj4Q1q23ZRshLwk+0HnCQfw07S2IH1uPE/oromygrvnV
WEFzNtC9ir9nYDIwaxaFwn4kZSSXQqmF9vg/RtikQKaIXzLr9m9iA00/muWlEPnE
B9dPF6lvrcxRZlxTInrlObRnOItPG1IjGetWUpUs6UaHyiQALlWOklABvQxaK8rF
bzxNmOPtDWXb0CAFCB6O/oJvTFA0DITK3aOZKf3ZnaLtEuSchA==
-----END CERTIFICATE-----
Certificate:
    Data:
        Version: 3 (0x2)
        Serial Number: 4097 (0x1001)
        Signature Algorithm: sha256WithRSAEncryption
        Issuer: C=CN, ST=Beijing, L=xiamen, O=MyCompany Root CA, CN=MyCompany Root CA
        Validity
            Not Before: Dec  2 20:50:32 2025 GMT
            Not After : Nov 27 20:50:32 2045 GMT
        Subject: C=CN, ST=Beijing, O=MyCompany Root CA, CN=MyCompany Root CA/emailAddress=zmingd@gmail.com
        Subject Public Key Info:
            Public Key Algorithm: rsaEncryption
                RSA Public-Key: (2048 bit)
                Modulus:
                    00:e8:1c:e1:52:37:66:03:ce:7e:a9:55:33:98:65:
                    58:7c:f1:0f:a3:f5:72:0f:a8:6d:a3:d3:61:c2:e4:
                    22:b5:d0:2b:d2:f7:d5:a5:74:81:3c:c1:0f:b5:7c:
                    71:01:4f:dc:3c:6c:e6:45:d0:25:6a:f9:be:bb:00:
                    7a:58:58:fe:8a:5e:92:11:60:6d:1f:1b:32:72:1f:
                    c5:36:6f:bf:f3:dd:cc:39:12:f9:a5:42:d6:37:1c:
                    64:44:6c:ac:aa:f5:f7:3f:f4:60:05:30:05:51:38:
                    30:07:df:02:17:ea:e9:42:ff:d8:e8:2c:f2:6c:c5:
                    df:8c:48:b8:1d:a0:40:2e:63:95:06:62:fb:74:a1:
                    d5:eb:cf:74:a7:e5:f7:0a:a8:bf:b8:ed:96:59:05:
                    b5:e4:a5:cf:9c:61:9a:7c:33:51:ed:7f:ae:57:ec:
                    69:4b:d4:f7:eb:6d:0a:87:08:7e:4a:26:34:2b:fe:
                    d6:a0:d8:df:65:93:ce:e8:c9:0b:b5:51:1f:6e:5b:
                    3a:62:1d:a8:4a:ba:07:89:84:66:b8:36:2b:b4:c4:
                    fa:bc:31:e9:73:9f:3e:2c:50:76:68:78:41:78:e0:
                    3a:00:15:9a:c1:39:ea:3e:54:73:6f:5f:0d:4c:a8:
                    2f:f3:67:dc:70:57:c3:11:15:7d:07:67:6e:03:75:
                    cc:65
                Exponent: 65537 (0x10001)
        X509v3 extensions:
            X509v3 Subject Key Identifier: 
                79:0F:35:DC:F2:7E:CC:19:80:07:38:A5:DF:9E:13:6C:27:72:3B:81
            X509v3 Authority Key Identifier: 
                keyid:A6:71:69:CB:BB:EB:8A:6D:2B:69:AC:EC:4A:67:AD:46:2D:87:F4:C5

            X509v3 Basic Constraints: critical
                CA:TRUE, pathlen:0
            X509v3 Key Usage: critical
                Digital Signature, Certificate Sign, CRL Sign
    Signature Algorithm: sha256WithRSAEncryption
         9c:7f:76:22:92:41:0c:0d:73:30:a2:a3:41:92:8a:91:c1:d3:
         df:11:3d:52:90:4a:8b:0b:e4:16:0b:36:f1:95:5e:5c:40:64:
         25:ea:83:c1:25:cb:ab:8c:1d:0f:94:5e:a3:4d:da:b3:2d:40:
         53:23:6d:08:ea:af:4e:01:32:93:04:16:e0:6a:29:1b:ca:2a:
         ce:30:07:56:d8:22:43:c0:22:54:c5:3c:71:fe:d6:2a:b3:b2:
         2e:07:0b:12:be:61:30:46:29:bf:70:13:f9:fe:10:ad:bc:7e:
         87:e1:78:f2:d9:b9:4f:6d:fc:bf:41:86:0d:76:9d:3f:6f:18:
         55:f9:0f:c0:22:8d:d2:ac:6f:97:72:fa:bd:b9:8d:e7:e6:6b:
         44:61:e1:ec:16:b5:20:81:84:68:e9:bd:6a:ae:e8:bf:b4:8d:
         ae:0d:8f:5b:60:41:0c:b0:77:42:23:39:8b:8c:85:39:7f:64:
         03:65:78:4e:4a:97:6a:e4:05:23:23:d9:d6:96:ae:e0:b4:d3:
         ce:e6:20:6a:30:31:0a:50:eb:b2:6c:1d:85:b0:be:6b:3c:7d:
         79:de:45:fc:81:0e:70:36:49:13:94:2d:6a:1a:d8:30:42:2d:
         03:f7:b5:d1:3c:fc:db:4d:5c:31:c7:c8:f8:45:57:d1:58:15:
         ed:75:fd:ef:32:ce:d9:71:0d:ff:02:a1:6d:82:ea:41:9b:89:
         76:22:51:53:40:ac:7a:c3:96:db:04:41:0e:24:8e:a8:d8:5a:
         41:24:91:33:6d:cd:d0:43:d3:5f:a2:79:6d:c0:2f:89:18:f2:
         c7:d6:da:ec:0f:0e:69:f9:1c:ce:8c:2c:11:83:1c:46:01:e4:
         9f:db:b3:fe:e5:10:be:9e:72:2d:12:01:10:45:a3:25:17:36:
         0e:67:49:67:52:07:39:cd:a6:18:b2:bc:fa:da:54:f5:46:1c:
         fa:a1:33:b4:b0:a5:df:a3:ff:38:49:44:c8:cd:c3:15:75:76:
         8a:a4:b3:58:d4:ce:fe:d3:07:ed:17:2e:1e:8c:ff:38:93:a4:
         e3:c7:cb:9c:77:de:2b:e9:9d:d5:61:0d:a0:21:38:b0:1a:07:
         90:90:8b:2e:df:b3:9c:d9:cd:c7:21:b7:08:28:65:ac:91:46:
         fe:41:1b:a2:28:c9:2d:52:50:aa:29:1a:bc:ef:05:b6:65:0e:
         33:d0:e5:37:7d:e1:ed:bd:75:71:92:d3:24:e5:48:d1:6b:28:
         0a:e2:37:34:16:c4:55:0d:7f:e4:14:4b:a3:de:cb:c3:7a:e3:
         c9:d4:ac:71:f6:73:88:ab:8b:4d:af:9b:ad:b7:c7:96:56:10:
         d7:d9:51:14:80:32:de:8d
-----BEGIN CERTIFICATE-----
MIIEwjCCAqqgAwIBAgICEAEwDQYJKoZIhvcNAQELBQAwaDELMAkGA1UEBhMCQ04x
EDAOBgNVBAgMB0JlaWppbmcxDzANBgNVBAcMBnhpYW1lbjEaMBgGA1UECgwRTXlD
b21wYW55IFJvb3QgQ0ExGjAYBgNVBAMMEU15Q29tcGFueSBSb290IENBMB4XDTI1
MTIwMjIwNTAzMloXDTQ1MTEyNzIwNTAzMloweDELMAkGA1UEBhMCQ04xEDAOBgNV
BAgMB0JlaWppbmcxGjAYBgNVBAoMEU15Q29tcGFueSBSb290IENBMRowGAYDVQQD
DBFNeUNvbXBhbnkgUm9vdCBDQTEfMB0GCSqGSIb3DQEJARYQem1pbmdkQGdtYWls
LmNvbTCCASIwDQYJKoZIhvcNAQEBBQADggEPADCCAQoCggEBAOgc4VI3ZgPOfqlV
M5hlWHzxD6P1cg+obaPTYcLkIrXQK9L31aV0gTzBD7V8cQFP3Dxs5kXQJWr5vrsA
elhY/opekhFgbR8bMnIfxTZvv/PdzDkS+aVC1jccZERsrKr19z/0YAUwBVE4MAff
Ahfq6UL/2Ogs8mzF34xIuB2gQC5jlQZi+3Sh1evPdKfl9wqov7jtllkFteSlz5xh
mnwzUe1/rlfsaUvU9+ttCocIfkomNCv+1qDY32WTzujJC7VRH25bOmIdqEq6B4mE
Zrg2K7TE+rwx6XOfPixQdmh4QXjgOgAVmsE56j5Uc29fDUyoL/Nn3HBXwxEVfQdn
bgN1zGUCAwEAAaNmMGQwHQYDVR0OBBYEFHkPNdzyfswZgAc4pd+eE2wncjuBMB8G
A1UdIwQYMBaAFKZxacu764ptK2ms7EpnrUYth/TFMBIGA1UdEwEB/wQIMAYBAf8C
AQAwDgYDVR0PAQH/BAQDAgGGMA0GCSqGSIb3DQEBCwUAA4ICAQCcf3YikkEMDXMw
oqNBkoqRwdPfET1SkEqLC+QWCzbxlV5cQGQl6oPBJcurjB0PlF6jTdqzLUBTI20I
6q9OATKTBBbgaikbyirOMAdW2CJDwCJUxTxx/tYqs7IuBwsSvmEwRim/cBP5/hCt
vH6H4Xjy2blPbfy/QYYNdp0/bxhV+Q/AIo3SrG+Xcvq9uY3n5mtEYeHsFrUggYRo
6b1qrui/tI2uDY9bYEEMsHdCIzmLjIU5f2QDZXhOSpdq5AUjI9nWlq7gtNPO5iBq
MDEKUOuybB2FsL5rPH153kX8gQ5wNkkTlC1qGtgwQi0D97XRPPzbTVwxx8j4RVfR
WBXtdf3vMs7ZcQ3/AqFtgupBm4l2IlFTQKx6w5bbBEEOJI6o2FpBJJEzbc3QQ9Nf
onltwC+JGPLH1trsDw5p+RzOjCwRgxxGAeSf27P+5RC+nnItEgEQRaMlFzYOZ0ln
Ugc5zaYYsrz62lT1Rhz6oTO0sKXfo/84SUTIzcMVdXaKpLNY1M7+0wftFy4ejP84
k6Tjx8ucd94r6Z3VYQ2gITiwGgeQkIsu37Oc2c3HIbcIKGWskUb+QRuiKMktUlCq
KRq87wW2ZQ4z0OU3feHtvXVxktMk5UjRaygK4jc0FsRVDX/kFEuj3svDeuPJ1Kxx
9nOIq4tNr5utt8eWVhDX2VEUgDLejQ==
-----END CERTIFICATE-----
